; Function Attrs: mustprogress nofree norecurse nosync nounwind memory(argmem: readwrite) uwtable
define hidden void @_ZNK19OpenColorIO_v2_5dev19Renderer_XYZ_TO_xyY5applyEPKvPvl(ptr nonnull readnone align 8 captures(none) %0, ptr noundef readonly captures(none) %1, ptr noundef writeonly captures(none) %2, i64 noundef %3) unnamed_addr #13 align 2 {
  %5 = icmp sgt i64 %3, 0
  br i1 %5, label %.lr.ph, label %._crit_edge

._crit_edge:                                      ; preds = %.lr.ph, %4
  ret void

.lr.ph:                                           ; preds = %4, %.lr.ph
  %.030 = phi ptr [ %23, %.lr.ph ], [ %1, %4 ]
  %.02629 = phi ptr [ %24, %.lr.ph ], [ %2, %4 ]
  %.02728 = phi i64 [ %25, %.lr.ph ], [ 0, %4 ]
  %6 = load float, ptr %.030, align 4, !tbaa !13
  %7 = getelementptr inbounds nuw i8, ptr %.030, i64 4
  %8 = load float, ptr %7, align 4, !tbaa !13
  %9 = getelementptr inbounds nuw i8, ptr %.030, i64 8
  %10 = load float, ptr %9, align 4, !tbaa !13
  %11 = fadd float %6, %8
  %12 = fadd float %11, %10
  %13 = fcmp oeq float %12, 0.000000e+00
  %14 = fdiv float 1.000000e+00, %12
  %15 = select i1 %13, float 0.000000e+00, float %14
  %16 = fmul float %6, %15
  %17 = fmul float %8, %15
  store float %16, ptr %.02629, align 4, !tbaa !13
  %18 = getelementptr inbounds nuw i8, ptr %.02629, i64 4
  store float %17, ptr %18, align 4, !tbaa !13
  %19 = getelementptr inbounds nuw i8, ptr %.02629, i64 8
  store float %8, ptr %19, align 4, !tbaa !13
  %20 = getelementptr inbounds nuw i8, ptr %.030, i64 12
  %21 = load float, ptr %20, align 4, !tbaa !13
  %22 = getelementptr inbounds nuw i8, ptr %.02629, i64 12
  store float %21, ptr %22, align 4, !tbaa !13
  %23 = getelementptr inbounds nuw i8, ptr %.030, i64 16
  %24 = getelementptr inbounds nuw i8, ptr %.02629, i64 16
  %25 = add nuw nsw i64 %.02728, 1
  %exitcond.not = icmp eq i64 %25, %3
  br i1 %exitcond.not, label %._crit_edge, label %.lr.ph, !llvm.loop !120
}